; Function Attrs: nounwind uwtable
define hidden zeroext i1 @SDL_GetHapticEffectStatus_REAL(ptr noundef %0, i32 noundef %1) local_unnamed_addr #0 {
  %3 = tail call zeroext i1 @SDL_ObjectValid(ptr noundef %0, i32 noundef 6) #9
  br i1 %3, label %6, label %4

4:                                                ; preds = %2
  %5 = tail call zeroext i1 (ptr, ...) @SDL_SetError_REAL(ptr noundef nonnull @.str, ptr noundef nonnull @.str.1) #9
  br label %30

6:                                                ; preds = %2
  %7 = tail call zeroext i1 @SDL_HIDAPI_HapticIsHidapi(ptr noundef %0) #9
  br i1 %7, label %8, label %10

8:                                                ; preds = %6
  %9 = tail call zeroext i1 @SDL_HIDAPI_HapticGetEffectStatus(ptr noundef %0, i32 noundef %1) #9
  br label %30

10:                                               ; preds = %6
  %11 = icmp slt i32 %1, 0
  br i1 %11, label %ValidEffect.exit, label %12

12:                                               ; preds = %10
  %13 = getelementptr inbounds nuw i8, ptr %0, i64 24
  %14 = load i32, ptr %13, align 8
  %.not.i = icmp slt i32 %1, %14
  br i1 %.not.i, label %16, label %ValidEffect.exit

ValidEffect.exit:                                 ; preds = %10, %12
  %15 = tail call zeroext i1 (ptr, ...) @SDL_SetError_REAL(ptr noundef nonnull @.str.23) #9
  br label %30

16:                                               ; preds = %12
  %17 = getelementptr inbounds nuw i8, ptr %0, i64 32
  %18 = load i32, ptr %17, align 8
  %19 = and i32 %18, 262144
  %.not = icmp eq i32 %19, 0
  br i1 %.not, label %20, label %22

20:                                               ; preds = %16
  %21 = tail call zeroext i1 (ptr, ...) @SDL_SetError_REAL(ptr noundef nonnull @.str.11) #9
  br label %30

22:                                               ; preds = %16
  %23 = tail call zeroext i1 @SDL_ClearError_REAL() #9
  %24 = getelementptr inbounds nuw i8, ptr %0, i64 16
  %25 = load ptr, ptr %24, align 8
  %26 = zext nneg i32 %1 to i64
  %27 = getelementptr inbounds nuw %struct.haptic_effect, ptr %25, i64 %26
  %28 = tail call i32 @SDL_SYS_HapticGetEffectStatus(ptr noundef nonnull %0, ptr noundef %27) #9
  %29 = icmp sgt i32 %28, 0
  br label %30

30:                                               ; preds = %ValidEffect.exit, %22, %20, %8, %4
  %.0 = phi i1 [ %9, %8 ], [ %29, %22 ], [ %21, %20 ], [ false, %4 ], [ false, %ValidEffect.exit ]
  ret i1 %.0
}